; Function Attrs: null_pointer_is_valid sspstrong uwtable
define internal i32 @dissect_FMP_PlugIn_reply(ptr noundef %0, ptr readnone captures(none) %1, ptr noundef %2, ptr readnone captures(none) %3) #0 {
  %5 = alloca i32, align 4
  call void @llvm.lifetime.start.p0(i64 4, ptr nonnull %5) #3
  %6 = call fastcc i32 @dissect_fmp_status(ptr noundef %0, i32 noundef 0, ptr noundef %2, ptr noundef nonnull %5)
  %7 = load i32, ptr %5, align 4
  %8 = icmp eq i32 %7, 0
  br i1 %8, label %9, label %12

9:                                                ; preds = %4
  %10 = load i32, ptr @hf_fmp_plugInBuf, align 4
  %11 = tail call i32 @dissect_rpc_data(ptr noundef %0, ptr noundef %2, i32 noundef %10, i32 noundef %6)
  br label %12

12:                                               ; preds = %9, %4
  %.0 = phi i32 [ %11, %9 ], [ %6, %4 ]
  call void @llvm.lifetime.end.p0(i64 4, ptr nonnull %5) #3
  ret i32 %.0
}